; Function Attrs: mustprogress uwtable
define noundef zeroext i1 @_ZN5Ipopt16StdInterfaceTNLP6eval_fEiPKdbRd(ptr nocapture noundef nonnull align 8 dereferenceable(264) %0, i32 noundef %1, ptr noundef %2, i1 noundef zeroext %3, ptr noundef nonnull align 8 dereferenceable(8) %4) unnamed_addr #0 align 2 {
  br i1 %3, label %6, label %_ZN5Ipopt16StdInterfaceTNLP11apply_new_xEbiPKd.exit

6:                                                ; preds = %5
  %7 = getelementptr inbounds i8, ptr %0, i64 192
  %8 = load ptr, ptr %7, align 8
  %9 = icmp eq ptr %8, null
  br i1 %9, label %10, label %16

10:                                               ; preds = %6
  %11 = zext nneg i32 %1 to i64
  %12 = icmp slt i32 %1, 0
  %13 = shl nuw nsw i64 %11, 3
  %14 = select i1 %12, i64 -1, i64 %13
  %15 = tail call noalias noundef nonnull ptr @_Znam(i64 noundef %14) #13
  store ptr %15, ptr %7, align 8
  br label %16

16:                                               ; preds = %10, %6
  %17 = phi ptr [ %15, %10 ], [ %8, %6 ]
  tail call void @_ZN5Ipopt10IpBlasCopyEiPKdiPdi(i32 noundef %1, ptr noundef %2, i32 noundef 1, ptr noundef nonnull %17, i32 noundef 1)
  br label %_ZN5Ipopt16StdInterfaceTNLP11apply_new_xEbiPKd.exit

_ZN5Ipopt16StdInterfaceTNLP11apply_new_xEbiPKd.exit: ; preds = %5, %16
  %18 = getelementptr inbounds i8, ptr %0, i64 112
  %19 = load ptr, ptr %18, align 8
  %20 = getelementptr inbounds i8, ptr %0, i64 192
  %21 = load ptr, ptr %20, align 8
  %22 = getelementptr inbounds i8, ptr %0, i64 160
  %23 = load ptr, ptr %22, align 8
  %24 = tail call noundef zeroext i1 %19(i32 noundef %1, ptr noundef %21, i1 noundef zeroext %3, ptr noundef nonnull %4, ptr noundef %23)
  ret i1 %24
}